target datalayout = "e-m:e-p270:32:32-p271:32:32-p272:64:64-i64:64-i128:128-f80:128-n8:16:32:64-S128"
target triple = "x86_64-pc-linux-gnu"

%struct.pmix_regattr_t = type { ptr, [512 x i8], i16, ptr }

; Function Attrs: nounwind uwtable
define void @pmix_attributes_print_attrs(ptr noundef %0, ptr noundef %1, ptr noundef %2, i64 noundef %3) #0 {
  %5 = alloca ptr, align 8
  %6 = alloca ptr, align 8
  %7 = alloca ptr, align 8
  %8 = alloca i64, align 8
  %9 = alloca [141 x i8], align 16
  %10 = alloca ptr, align 8
  %11 = alloca i64, align 8
  %12 = alloca i64, align 8
  %13 = alloca i64, align 8
  store ptr %0, ptr %5, align 8, !tbaa !204
  store ptr %1, ptr %6, align 8, !tbaa !68
  store ptr %2, ptr %7, align 8, !tbaa !178
  store i64 %3, ptr %8, align 8, !tbaa !41
  call void @llvm.lifetime.start.p0(i64 141, ptr %9) #13
  call void @llvm.lifetime.start.p0(i64 8, ptr %10) #13
  call void @llvm.lifetime.start.p0(i64 8, ptr %11) #13
  call void @llvm.lifetime.start.p0(i64 8, ptr %12) #13
  call void @llvm.lifetime.start.p0(i64 8, ptr %13) #13
  %14 = getelementptr inbounds [141 x i8], ptr %9, i64 0, i64 0
  call void @llvm.memset.p0.i64(ptr align 16 %14, i8 32, i64 141, i1 false)
  store i64 0, ptr %12, align 8, !tbaa !41
  store i64 0, ptr %11, align 8, !tbaa !41
  br label %15

15:                                               ; preds = %29, %4
  %16 = load i64, ptr %11, align 8, !tbaa !41
  %17 = load ptr, ptr %6, align 8, !tbaa !68
  %18 = call i64 @strlen(ptr noundef %17) #15
  %19 = icmp ult i64 %16, %18
  br i1 %19, label %20, label %32

20:                                               ; preds = %15
  %21 = load ptr, ptr %6, align 8, !tbaa !68
  %22 = load i64, ptr %11, align 8, !tbaa !41
  %23 = getelementptr inbounds nuw i8, ptr %21, i64 %22
  %24 = load i8, ptr %23, align 1, !tbaa !102
  %25 = load i64, ptr %12, align 8, !tbaa !41
  %26 = getelementptr inbounds nuw [141 x i8], ptr %9, i64 0, i64 %25
  store i8 %24, ptr %26, align 1, !tbaa !102
  %27 = load i64, ptr %12, align 8, !tbaa !41
  %28 = add i64 %27, 1
  store i64 %28, ptr %12, align 8, !tbaa !41
  br label %29

29:                                               ; preds = %20
  %30 = load i64, ptr %11, align 8, !tbaa !41
  %31 = add i64 %30, 1
  store i64 %31, ptr %11, align 8, !tbaa !41
  br label %15, !llvm.loop !206

32:                                               ; preds = %15
  %33 = load i64, ptr %12, align 8, !tbaa !41
  %34 = add i64 %33, 1
  store i64 %34, ptr %12, align 8, !tbaa !41
  %35 = getelementptr inbounds nuw [141 x i8], ptr %9, i64 0, i64 %33
  store i8 58, ptr %35, align 1, !tbaa !102
  %36 = load i64, ptr %12, align 8, !tbaa !41
  %37 = getelementptr inbounds nuw [141 x i8], ptr %9, i64 0, i64 %36
  store i8 0, ptr %37, align 1, !tbaa !102
  %38 = load ptr, ptr %5, align 8, !tbaa !204
  %39 = getelementptr inbounds [141 x i8], ptr %9, i64 0, i64 0
  %40 = call i32 @PMIx_Argv_append_nosize(ptr noundef %38, ptr noundef %39)
  store i64 0, ptr %11, align 8, !tbaa !41
  br label %41

41:                                               ; preds = %150, %32
  %42 = load i64, ptr %11, align 8, !tbaa !41
  %43 = load i64, ptr %8, align 8, !tbaa !41
  %44 = icmp ult i64 %42, %43
  br i1 %44, label %45, label %153

45:                                               ; preds = %41
  %46 = getelementptr inbounds [141 x i8], ptr %9, i64 0, i64 0
  call void @llvm.memset.p0.i64(ptr align 16 %46, i8 32, i64 141, i1 false)
  %47 = getelementptr inbounds [141 x i8], ptr %9, i64 0, i64 140
  store i8 0, ptr %47, align 4, !tbaa !102
  %48 = load ptr, ptr %7, align 8, !tbaa !178
  %49 = load i64, ptr %11, align 8, !tbaa !41
  %50 = getelementptr inbounds nuw %struct.pmix_regattr_t, ptr %48, i64 %49
  %51 = getelementptr inbounds nuw %struct.pmix_regattr_t, ptr %50, i32 0, i32 0
  %52 = load ptr, ptr %51, align 8, !tbaa !180
  %53 = call i64 @strlen(ptr noundef %52) #15
  store i64 %53, ptr %13, align 8, !tbaa !41
  %54 = load i64, ptr %13, align 8, !tbaa !41
  %55 = icmp ult i64 35, %54
  br i1 %55, label %56, label %57

56:                                               ; preds = %45
  store i64 35, ptr %13, align 8, !tbaa !41
  br label %57

57:                                               ; preds = %56, %45
  %58 = getelementptr inbounds [141 x i8], ptr %9, i64 0, i64 0
  %59 = load ptr, ptr %7, align 8, !tbaa !178
  %60 = load i64, ptr %11, align 8, !tbaa !41
  %61 = getelementptr inbounds nuw %struct.pmix_regattr_t, ptr %59, i64 %60
  %62 = getelementptr inbounds nuw %struct.pmix_regattr_t, ptr %61, i32 0, i32 0
  %63 = load ptr, ptr %62, align 8, !tbaa !180
  %64 = load i64, ptr %13, align 8, !tbaa !41
  call void @llvm.memcpy.p0.p0.i64(ptr align 16 %58, ptr align 1 %63, i64 %64, i1 false)
  %65 = load ptr, ptr %7, align 8, !tbaa !178
  %66 = load i64, ptr %11, align 8, !tbaa !41
  %67 = getelementptr inbounds nuw %struct.pmix_regattr_t, ptr %65, i64 %66
  %68 = getelementptr inbounds nuw %struct.pmix_regattr_t, ptr %67, i32 0, i32 1
  %69 = getelementptr inbounds [512 x i8], ptr %68, i64 0, i64 0
  %70 = call i64 @strlen(ptr noundef %69) #15
  %71 = icmp eq i64 0, %70
  br i1 %71, label %72, label %77

72:                                               ; preds = %57
  %73 = getelementptr inbounds [141 x i8], ptr %9, i64 0, i64 140
  store i8 0, ptr %73, align 4, !tbaa !102
  %74 = load ptr, ptr %5, align 8, !tbaa !204
  %75 = getelementptr inbounds [141 x i8], ptr %9, i64 0, i64 0
  %76 = call i32 @PMIx_Argv_append_nosize(ptr noundef %74, ptr noundef %75)
  br label %150

77:                                               ; preds = %57
  %78 = load ptr, ptr %7, align 8, !tbaa !178
  %79 = load i64, ptr %11, align 8, !tbaa !41
  %80 = getelementptr inbounds nuw %struct.pmix_regattr_t, ptr %78, i64 %79
  %81 = getelementptr inbounds nuw %struct.pmix_regattr_t, ptr %80, i32 0, i32 1
  %82 = getelementptr inbounds [512 x i8], ptr %81, i64 0, i64 0
  %83 = call i64 @strlen(ptr noundef %82) #15
  store i64 %83, ptr %13, align 8, !tbaa !41
  %84 = load i64, ptr %13, align 8, !tbaa !41
  %85 = icmp ult i64 25, %84
  br i1 %85, label %86, label %87

86:                                               ; preds = %77
  store i64 25, ptr %13, align 8, !tbaa !41
  br label %87

87:                                               ; preds = %86, %77
  %88 = getelementptr inbounds [141 x i8], ptr %9, i64 0, i64 37
  %89 = load ptr, ptr %7, align 8, !tbaa !178
  %90 = load i64, ptr %11, align 8, !tbaa !41
  %91 = getelementptr inbounds nuw %struct.pmix_regattr_t, ptr %89, i64 %90
  %92 = getelementptr inbounds nuw %struct.pmix_regattr_t, ptr %91, i32 0, i32 1
  %93 = getelementptr inbounds [512 x i8], ptr %92, i64 0, i64 0
  %94 = load i64, ptr %13, align 8, !tbaa !41
  call void @llvm.memcpy.p0.p0.i64(ptr align 1 %88, ptr align 8 %93, i64 %94, i1 false)
  %95 = load ptr, ptr %7, align 8, !tbaa !178
  %96 = load i64, ptr %11, align 8, !tbaa !41
  %97 = getelementptr inbounds nuw %struct.pmix_regattr_t, ptr %95, i64 %96
  %98 = getelementptr inbounds nuw %struct.pmix_regattr_t, ptr %97, i32 0, i32 2
  %99 = load i16, ptr %98, align 8, !tbaa !182
  %100 = call ptr @PMIx_Data_type_string(i16 noundef zeroext %99)
  store ptr %100, ptr %10, align 8, !tbaa !68
  %101 = load ptr, ptr %10, align 8, !tbaa !68
  %102 = call i64 @strlen(ptr noundef %101) #15
  store i64 %102, ptr %13, align 8, !tbaa !41
  %103 = load i64, ptr %13, align 8, !tbaa !41
  %104 = icmp ult i64 25, %103
  br i1 %104, label %105, label %106

105:                                              ; preds = %87
  store i64 25, ptr %13, align 8, !tbaa !41
  br label %106

106:                                              ; preds = %105, %87
  %107 = getelementptr inbounds [141 x i8], ptr %9, i64 0, i64 64
  %108 = load ptr, ptr %10, align 8, !tbaa !68
  %109 = load i64, ptr %13, align 8, !tbaa !41
  call void @llvm.memcpy.p0.p0.i64(ptr align 16 %107, ptr align 1 %108, i64 %109, i1 false)
  store i64 0, ptr %12, align 8, !tbaa !41
  br label %110

110:                                              ; preds = %146, %106
  %111 = load ptr, ptr %7, align 8, !tbaa !178
  %112 = load i64, ptr %11, align 8, !tbaa !41
  %113 = getelementptr inbounds nuw %struct.pmix_regattr_t, ptr %111, i64 %112
  %114 = getelementptr inbounds nuw %struct.pmix_regattr_t, ptr %113, i32 0, i32 3
  %115 = load ptr, ptr %114, align 8, !tbaa !183
  %116 = load i64, ptr %12, align 8, !tbaa !41
  %117 = getelementptr inbounds nuw ptr, ptr %115, i64 %116
  %118 = load ptr, ptr %117, align 8, !tbaa !68
  %119 = icmp ne ptr null, %118
  br i1 %119, label %120, label %149

120:                                              ; preds = %110
  %121 = load ptr, ptr %7, align 8, !tbaa !178
  %122 = load i64, ptr %11, align 8, !tbaa !41
  %123 = getelementptr inbounds nuw %struct.pmix_regattr_t, ptr %121, i64 %122
  %124 = getelementptr inbounds nuw %struct.pmix_regattr_t, ptr %123, i32 0, i32 3
  %125 = load ptr, ptr %124, align 8, !tbaa !183
  %126 = load i64, ptr %12, align 8, !tbaa !41
  %127 = getelementptr inbounds nuw ptr, ptr %125, i64 %126
  %128 = load ptr, ptr %127, align 8, !tbaa !68
  %129 = call i64 @strlen(ptr noundef %128) #15
  store i64 %129, ptr %13, align 8, !tbaa !41
  %130 = getelementptr inbounds [141 x i8], ptr %9, i64 0, i64 86
  %131 = load ptr, ptr %7, align 8, !tbaa !178
  %132 = load i64, ptr %11, align 8, !tbaa !41
  %133 = getelementptr inbounds nuw %struct.pmix_regattr_t, ptr %131, i64 %132
  %134 = getelementptr inbounds nuw %struct.pmix_regattr_t, ptr %133, i32 0, i32 3
  %135 = load ptr, ptr %134, align 8, !tbaa !183
  %136 = load i64, ptr %12, align 8, !tbaa !41
  %137 = getelementptr inbounds nuw ptr, ptr %135, i64 %136
  %138 = load ptr, ptr %137, align 8, !tbaa !68
  %139 = load i64, ptr %13, align 8, !tbaa !41
  call void @llvm.memcpy.p0.p0.i64(ptr align 2 %130, ptr align 1 %138, i64 %139, i1 false)
  %140 = getelementptr inbounds [141 x i8], ptr %9, i64 0, i64 140
  store i8 0, ptr %140, align 4, !tbaa !102
  %141 = load ptr, ptr %5, align 8, !tbaa !204
  %142 = getelementptr inbounds [141 x i8], ptr %9, i64 0, i64 0
  %143 = call i32 @PMIx_Argv_append_nosize(ptr noundef %141, ptr noundef %142)
  %144 = getelementptr inbounds [141 x i8], ptr %9, i64 0, i64 0
  call void @llvm.memset.p0.i64(ptr align 16 %144, i8 32, i64 141, i1 false)
  %145 = getelementptr inbounds [141 x i8], ptr %9, i64 0, i64 140
  store i8 0, ptr %145, align 4, !tbaa !102
  br label %146

146:                                              ; preds = %120
  %147 = load i64, ptr %12, align 8, !tbaa !41
  %148 = add i64 %147, 1
  store i64 %148, ptr %12, align 8, !tbaa !41
  br label %110, !llvm.loop !207

149:                                              ; preds = %110
  br label %150

150:                                              ; preds = %149, %72
  %151 = load i64, ptr %11, align 8, !tbaa !41
  %152 = add i64 %151, 1
  store i64 %152, ptr %11, align 8, !tbaa !41
  br label %41, !llvm.loop !208

153:                                              ; preds = %41
  call void @llvm.lifetime.end.p0(i64 8, ptr %13) #13
  call void @llvm.lifetime.end.p0(i64 8, ptr %12) #13
  call void @llvm.lifetime.end.p0(i64 8, ptr %11) #13
  call void @llvm.lifetime.end.p0(i64 8, ptr %10) #13
  call void @llvm.lifetime.end.p0(i64 141, ptr %9) #13
  ret void
}