; Function Attrs: nounwind uwtable
define void @pmix_attributes_print_attrs(ptr noundef %0, ptr noundef readonly captures(none) %1, ptr noundef readonly captures(none) %2, i64 noundef %3) local_unnamed_addr #0 {
  %5 = alloca [141 x i8], align 16
  call void @llvm.lifetime.start.p0(i64 141, ptr nonnull %5) #18
  call void @llvm.memset.p0.i64(ptr noundef nonnull align 16 dereferenceable(141) %5, i8 32, i64 141, i1 false)
  %6 = tail call i64 @strlen(ptr noundef nonnull dereferenceable(1) %1) #20
  %.not61 = icmp eq i64 %6, 0
  br i1 %.not61, label %._crit_edge, label %.lr.ph.preheader

.lr.ph.preheader:                                 ; preds = %4
  call void @llvm.memcpy.p0.p0.i64(ptr nonnull align 16 %5, ptr nonnull align 1 %1, i64 %6, i1 false), !tbaa !80
  br label %._crit_edge

._crit_edge:                                      ; preds = %.lr.ph.preheader, %4
  %7 = add i64 %6, 1
  %8 = getelementptr inbounds nuw [141 x i8], ptr %5, i64 0, i64 %6
  store i8 58, ptr %8, align 1, !tbaa !80
  %9 = getelementptr inbounds nuw [141 x i8], ptr %5, i64 0, i64 %7
  store i8 0, ptr %9, align 1, !tbaa !80
  %10 = call i32 @PMIx_Argv_append_nosize(ptr noundef %0, ptr noundef nonnull %5) #18
  %.not62 = icmp eq i64 %3, 0
  br i1 %.not62, label %._crit_edge60, label %.lr.ph59

.lr.ph59:                                         ; preds = %._crit_edge
  %11 = getelementptr inbounds nuw i8, ptr %5, i64 140
  %12 = getelementptr inbounds nuw i8, ptr %5, i64 37
  %13 = getelementptr inbounds nuw i8, ptr %5, i64 64
  %14 = getelementptr inbounds nuw i8, ptr %5, i64 86
  br label %15

15:                                               ; preds = %.lr.ph59, %.loopexit
  %.14857 = phi i64 [ 0, %.lr.ph59 ], [ %39, %.loopexit ]
  call void @llvm.memset.p0.i64(ptr noundef nonnull align 16 dereferenceable(141) %5, i8 32, i64 141, i1 false)
  store i8 0, ptr %11, align 4, !tbaa !80
  %16 = getelementptr inbounds nuw %struct.pmix_regattr_t, ptr %2, i64 %.14857
  %17 = load ptr, ptr %16, align 8, !tbaa !152
  %18 = call i64 @strlen(ptr noundef nonnull dereferenceable(1) %17) #20
  %spec.store.select = call i64 @llvm.umin.i64(i64 %18, i64 35)
  call void @llvm.memcpy.p0.p0.i64(ptr nonnull align 16 %5, ptr nonnull align 1 %17, i64 %spec.store.select, i1 false)
  %19 = getelementptr inbounds nuw i8, ptr %16, i64 8
  %20 = call i64 @strlen(ptr noundef nonnull dereferenceable(1) %19) #20
  %21 = icmp eq i64 %20, 0
  br i1 %21, label %22, label %24

22:                                               ; preds = %15
  store i8 0, ptr %11, align 4, !tbaa !80
  %23 = call i32 @PMIx_Argv_append_nosize(ptr noundef %0, ptr noundef nonnull %5) #18
  br label %.loopexit

24:                                               ; preds = %15
  %spec.store.select1 = call i64 @llvm.umin.i64(i64 %20, i64 25)
  call void @llvm.memcpy.p0.p0.i64(ptr nonnull align 1 %12, ptr nonnull align 8 %19, i64 %spec.store.select1, i1 false)
  %25 = getelementptr inbounds nuw i8, ptr %16, i64 520
  %26 = load i16, ptr %25, align 8, !tbaa !159
  %27 = call ptr @PMIx_Data_type_string(i16 noundef zeroext %26) #18
  %28 = call i64 @strlen(ptr noundef nonnull dereferenceable(1) %27) #20
  %spec.store.select2 = call i64 @llvm.umin.i64(i64 %28, i64 25)
  call void @llvm.memcpy.p0.p0.i64(ptr nonnull align 16 %13, ptr nonnull align 1 %27, i64 %spec.store.select2, i1 false)
  %29 = getelementptr inbounds nuw i8, ptr %16, i64 528
  %30 = load ptr, ptr %29, align 8, !tbaa !160
  %31 = load ptr, ptr %30, align 8, !tbaa !96
  %.not53 = icmp eq ptr %31, null
  br i1 %.not53, label %.loopexit, label %.lr.ph56

.lr.ph56:                                         ; preds = %24, %.lr.ph56
  %32 = phi ptr [ %38, %.lr.ph56 ], [ %31, %24 ]
  %.154 = phi i64 [ %35, %.lr.ph56 ], [ 0, %24 ]
  %33 = call i64 @strlen(ptr noundef nonnull dereferenceable(1) %32) #20
  call void @llvm.memcpy.p0.p0.i64(ptr nonnull align 2 %14, ptr nonnull align 1 %32, i64 %33, i1 false)
  store i8 0, ptr %11, align 4, !tbaa !80
  %34 = call i32 @PMIx_Argv_append_nosize(ptr noundef %0, ptr noundef nonnull %5) #18
  call void @llvm.memset.p0.i64(ptr noundef nonnull align 16 dereferenceable(141) %5, i8 32, i64 141, i1 false)
  store i8 0, ptr %11, align 4, !tbaa !80
  %35 = add i64 %.154, 1
  %36 = load ptr, ptr %29, align 8, !tbaa !160
  %37 = getelementptr inbounds nuw ptr, ptr %36, i64 %35
  %38 = load ptr, ptr %37, align 8, !tbaa !96
  %.not = icmp eq ptr %38, null
  br i1 %.not, label %.loopexit, label %.lr.ph56, !llvm.loop !175

.loopexit:                                        ; preds = %.lr.ph56, %24, %22
  %39 = add nuw i64 %.14857, 1
  %exitcond.not = icmp eq i64 %39, %3
  br i1 %exitcond.not, label %._crit_edge60, label %15, !llvm.loop !176

._crit_edge60:                                    ; preds = %.loopexit, %._crit_edge
  call void @llvm.lifetime.end.p0(i64 141, ptr nonnull %5) #18
  ret void
}